; ModuleID = 'bench/linux/original/ttm_module.ll'
source_filename = "bench/linux/original/ttm_module.ll"
target datalayout = "e-m:e-p270:32:32-p271:32:32-p272:64:64-i64:64-i128:128-f80:128-n8:16:32:64-S128"
target triple = "x86_64-unknown-linux-gnu"

%struct.cpuinfo_x86 = type { i8, i8, i8, i8, i32, [5 x i32], i8, i8, i8, i32, i32, %union.anon, [16 x i8], [64 x i8], %struct.cpuinfo_topology, i32, i32, i32, i32, i32, i32, i64, i64, i16, i16, i16, i16, i8, i32, i8, i8 }
%union.anon = type { i64, [88 x i8] }
%struct.cpuinfo_topology = type { i32, i32, i32, i32, i32, i32, i32, i32, i32, i32 }

@boot_cpu_data = external dso_local local_unnamed_addr global %struct.cpuinfo_x86, align 8
@__UNIQUE_ID_author320 = internal constant [43 x i8] c"ttm.author=Thomas Hellstrom, Jerome Glisse\00", section ".modinfo", align 1
@__UNIQUE_ID_description321 = internal constant [62 x i8] c"ttm.description=TTM memory manager subsystem (for DRM device)\00", section ".modinfo", align 1
@__UNIQUE_ID_file322 = internal constant [33 x i8] c"ttm.file=drivers/gpu/drm/ttm/ttm\00", section ".modinfo", align 1
@__UNIQUE_ID_license323 = internal constant [38 x i8] c"ttm.license=GPL and additional rights\00", section ".modinfo", align 1
@llvm.compiler.used = appending global [4 x ptr] [ptr @__UNIQUE_ID_author320, ptr @__UNIQUE_ID_description321, ptr @__UNIQUE_ID_file322, ptr @__UNIQUE_ID_license323], section "llvm.metadata"

; Function Attrs: fn_ret_thunk_extern nounwind null_pointer_is_valid
define dso_local i64 @ttm_prot_from_caching(i32 noundef %0, i64 %1) local_unnamed_addr #0 align 16 {
  switch i32 %0, label %5 [
    i32 2, label %11
    i32 1, label %3
  ]

3:                                                ; preds = %2
  %4 = tail call i64 @pgprot_writecombine(i64 %1) #2
  br label %11

5:                                                ; preds = %2
  %6 = load i8, ptr @boot_cpu_data, align 8
  %7 = icmp ugt i8 %6, 3
  br i1 %7, label %8, label %11

8:                                                ; preds = %5
  %9 = tail call i64 @cachemode2protval(i32 noundef 2) #2
  %10 = or i64 %9, %1
  br label %11

11:                                               ; preds = %8, %5, %3, %2
  %12 = phi i64 [ %1, %2 ], [ %4, %3 ], [ %10, %8 ], [ %1, %5 ]
  ret i64 %12
}

; Function Attrs: null_pointer_is_valid
declare dso_local i64 @pgprot_writecombine(i64) local_unnamed_addr #1

; Function Attrs: null_pointer_is_valid
declare dso_local i64 @cachemode2protval(i32 noundef) local_unnamed_addr #1


!llvm.module.flags = !{!0, !1, !2, !3, !4}

!0 = !{i32 1, !"wchar_size", i32 2}
!1 = !{i32 8, !"cf-protection-branch", i32 1}
!2 = !{i32 4, !"function_return_thunk_extern", i32 1}
!3 = !{i32 4, !"indirect_branch_cs_prefix", i32 1}
!4 = !{i32 4, !"SkipRaxSetup", i32 1}
